target datalayout = "e-m:e-p270:32:32-p271:32:32-p272:64:64-i64:64-i128:128-f80:128-n8:16:32:64-S128"
target triple = "x86_64-pc-linux-gnu"

%struct.Vec_Int_t_ = type { i32, i32, ptr }
%struct.Wlc_Ntk_t_ = type { ptr, ptr, %struct.Vec_Int_t_, %struct.Vec_Int_t_, %struct.Vec_Int_t_, %struct.Vec_Int_t_, %struct.Vec_Int_t_, %struct.Vec_Int_t_, ptr, ptr, ptr, [60 x i32], [60 x i32], i32, i32, i32, i32, i32, ptr, i32, i32, ptr, ptr, ptr, ptr, ptr, %struct.Vec_Int_t_, %struct.Vec_Int_t_, i32, %struct.Vec_Int_t_, %struct.Vec_Int_t_, %struct.Vec_Int_t_, %struct.Vec_Int_t_, %struct.Vec_Int_t_, %struct.Vec_Int_t_ }
%struct.Wlc_Obj_t_ = type { i16, i32, i32, i32, %union.anon }
%union.anon = type { [1 x ptr] }

; Function Attrs: nounwind uwtable
define i32 @Wlc_ObjIsArithmReal(ptr noundef %0) #0 {
  %2 = alloca ptr, align 8
  store ptr %0, ptr %2, align 8, !tbaa !3
  %3 = load ptr, ptr %2, align 8, !tbaa !3
  %4 = load i16, ptr %3, align 8
  %5 = and i16 %4, 63
  %6 = zext i16 %5 to i32
  %7 = icmp eq i32 %6, 15
  br i1 %7, label %32, label %8

8:                                                ; preds = %1
  %9 = load ptr, ptr %2, align 8, !tbaa !3
  %10 = load i16, ptr %9, align 8
  %11 = and i16 %10, 63
  %12 = zext i16 %11 to i32
  %13 = icmp eq i32 %12, 43
  br i1 %13, label %32, label %14

14:                                               ; preds = %8
  %15 = load ptr, ptr %2, align 8, !tbaa !3
  %16 = load i16, ptr %15, align 8
  %17 = and i16 %16, 63
  %18 = zext i16 %17 to i32
  %19 = icmp eq i32 %18, 44
  br i1 %19, label %32, label %20

20:                                               ; preds = %14
  %21 = load ptr, ptr %2, align 8, !tbaa !3
  %22 = load i16, ptr %21, align 8
  %23 = and i16 %22, 63
  %24 = zext i16 %23 to i32
  %25 = icmp eq i32 %24, 45
  br i1 %25, label %32, label %26

26:                                               ; preds = %20
  %27 = load ptr, ptr %2, align 8, !tbaa !3
  %28 = load i16, ptr %27, align 8
  %29 = and i16 %28, 63
  %30 = zext i16 %29 to i32
  %31 = icmp eq i32 %30, 50
  br label %32

32:                                               ; preds = %26, %20, %14, %8, %1
  %33 = phi i1 [ true, %20 ], [ true, %14 ], [ true, %8 ], [ true, %1 ], [ %31, %26 ]
  %34 = zext i1 %33 to i32
  ret i32 %34
}

; Function Attrs: inlinehint nounwind uwtable
define internal ptr @Wlc_NtkObj(ptr noundef %0, i32 noundef %1) #2 {
  %3 = alloca ptr, align 8
  %4 = alloca i32, align 4
  store ptr %0, ptr %3, align 8, !tbaa !8
  store i32 %1, ptr %4, align 4, !tbaa !12
  %5 = load ptr, ptr %3, align 8, !tbaa !8
  %6 = getelementptr inbounds nuw %struct.Wlc_Ntk_t_, ptr %5, i32 0, i32 18
  %7 = load ptr, ptr %6, align 8, !tbaa !19
  %8 = load i32, ptr %4, align 4, !tbaa !12
  %9 = sext i32 %8 to i64
  %10 = getelementptr inbounds %struct.Wlc_Obj_t_, ptr %7, i64 %9
  ret ptr %10
}

; Function Attrs: inlinehint nounwind uwtable
define internal i32 @Vec_IntEntry(ptr noundef %0, i32 noundef %1) #2 {
  %3 = alloca ptr, align 8
  %4 = alloca i32, align 4
  store ptr %0, ptr %3, align 8, !tbaa !10
  store i32 %1, ptr %4, align 4, !tbaa !12
  %5 = load ptr, ptr %3, align 8, !tbaa !10
  %6 = getelementptr inbounds nuw %struct.Vec_Int_t_, ptr %5, i32 0, i32 2
  %7 = load ptr, ptr %6, align 8, !tbaa !26
  %8 = load i32, ptr %4, align 4, !tbaa !12
  %9 = sext i32 %8 to i64
  %10 = getelementptr inbounds i32, ptr %7, i64 %9
  %11 = load i32, ptr %10, align 4, !tbaa !12
  ret i32 %11
}

; Function Attrs: inlinehint nounwind uwtable
define internal i32 @Vec_IntSize(ptr noundef %0) #2 {
  %2 = alloca ptr, align 8
  store ptr %0, ptr %2, align 8, !tbaa !10
  %3 = load ptr, ptr %2, align 8, !tbaa !10
  %4 = getelementptr inbounds nuw %struct.Vec_Int_t_, ptr %3, i32 0, i32 1
  %5 = load i32, ptr %4, align 4, !tbaa !16
  ret i32 %5
}

; Function Attrs: nounwind uwtable
define i32 @Wlc_ManCountArithmReal(ptr noundef %0, ptr noundef %1) #0 {
  %3 = alloca ptr, align 8
  %4 = alloca ptr, align 8
  %5 = alloca ptr, align 8
  %6 = alloca i32, align 4
  %7 = alloca i32, align 4
  store ptr %0, ptr %3, align 8, !tbaa !8
  store ptr %1, ptr %4, align 8, !tbaa !10
  call void @llvm.lifetime.start.p0(i64 8, ptr %5) #7
  call void @llvm.lifetime.start.p0(i64 4, ptr %6) #7
  call void @llvm.lifetime.start.p0(i64 4, ptr %7) #7
  store i32 0, ptr %7, align 4, !tbaa !12
  store i32 0, ptr %6, align 4, !tbaa !12
  br label %8

8:                                                ; preds = %26, %2
  %9 = load i32, ptr %6, align 4, !tbaa !12
  %10 = load ptr, ptr %4, align 8, !tbaa !10
  %11 = call i32 @Vec_IntSize(ptr noundef %10)
  %12 = icmp slt i32 %9, %11
  br i1 %12, label %13, label %19

13:                                               ; preds = %8
  %14 = load ptr, ptr %3, align 8, !tbaa !8
  %15 = load ptr, ptr %4, align 8, !tbaa !10
  %16 = load i32, ptr %6, align 4, !tbaa !12
  %17 = call i32 @Vec_IntEntry(ptr noundef %15, i32 noundef %16)
  %18 = call ptr @Wlc_NtkObj(ptr noundef %14, i32 noundef %17)
  store ptr %18, ptr %5, align 8, !tbaa !3
  br label %19

19:                                               ; preds = %13, %8
  %20 = phi i1 [ false, %8 ], [ true, %13 ]
  br i1 %20, label %21, label %29

21:                                               ; preds = %19
  %22 = load ptr, ptr %5, align 8, !tbaa !3
  %23 = call i32 @Wlc_ObjIsArithmReal(ptr noundef %22)
  %24 = load i32, ptr %7, align 4, !tbaa !12
  %25 = add nsw i32 %24, %23
  store i32 %25, ptr %7, align 4, !tbaa !12
  br label %26

26:                                               ; preds = %21
  %27 = load i32, ptr %6, align 4, !tbaa !12
  %28 = add nsw i32 %27, 1
  store i32 %28, ptr %6, align 4, !tbaa !12
  br label %8, !llvm.loop !14

29:                                               ; preds = %19
  %30 = load i32, ptr %7, align 4, !tbaa !12
  call void @llvm.lifetime.end.p0(i64 4, ptr %7) #7
  call void @llvm.lifetime.end.p0(i64 4, ptr %6) #7
  call void @llvm.lifetime.end.p0(i64 8, ptr %5) #7
  ret i32 %30
}