; Function Attrs: nofree norecurse nosync nounwind memory(read, inaccessiblemem: none) uwtable
define i32 @Wlc_ManCountArithmReal(ptr noundef readonly captures(none) %0, ptr noundef readonly captures(none) %1) local_unnamed_addr #1 {
  %3 = getelementptr i8, ptr %1, i64 4
  %.val = load i32, ptr %3, align 4, !tbaa !3
  %4 = icmp sgt i32 %.val, 0
  br i1 %4, label %.lr.ph, label %.critedge

.lr.ph:                                           ; preds = %2
  %5 = getelementptr i8, ptr %1, i64 8
  %.val9 = load ptr, ptr %5, align 8, !tbaa !10
  %6 = getelementptr i8, ptr %0, i64 640
  %.val10 = load ptr, ptr %6, align 8, !tbaa !11
  %wide.trip.count = zext nneg i32 %.val to i64
  br label %7

7:                                                ; preds = %.lr.ph, %Wlc_ObjIsArithmReal.exit
  %indvars.iv = phi i64 [ 0, %.lr.ph ], [ %indvars.iv.next, %Wlc_ObjIsArithmReal.exit ]
  %.012 = phi i32 [ 0, %.lr.ph ], [ %18, %Wlc_ObjIsArithmReal.exit ]
  %8 = getelementptr inbounds nuw i32, ptr %.val9, i64 %indvars.iv
  %9 = load i32, ptr %8, align 4, !tbaa !20
  %10 = sext i32 %9 to i64
  %11 = getelementptr inbounds %struct.Wlc_Obj_t_, ptr %.val10, i64 %10
  %12 = load i16, ptr %11, align 8
  %13 = and i16 %12, 63
  switch i16 %13, label %14 [
    i16 15, label %Wlc_ObjIsArithmReal.exit
    i16 43, label %Wlc_ObjIsArithmReal.exit
    i16 44, label %Wlc_ObjIsArithmReal.exit
    i16 45, label %Wlc_ObjIsArithmReal.exit
  ]

14:                                               ; preds = %7
  %15 = icmp eq i16 %13, 50
  %16 = zext i1 %15 to i32
  br label %Wlc_ObjIsArithmReal.exit

Wlc_ObjIsArithmReal.exit:                         ; preds = %7, %7, %7, %7, %14
  %17 = phi i32 [ 1, %7 ], [ %16, %14 ], [ 1, %7 ], [ 1, %7 ], [ 1, %7 ]
  %18 = add nuw nsw i32 %17, %.012
  %indvars.iv.next = add nuw nsw i64 %indvars.iv, 1
  %exitcond.not = icmp eq i64 %indvars.iv.next, %wide.trip.count
  br i1 %exitcond.not, label %.critedge, label %7, !llvm.loop !21

.critedge:                                        ; preds = %Wlc_ObjIsArithmReal.exit, %2
  %.0.lcssa = phi i32 [ 0, %2 ], [ %18, %Wlc_ObjIsArithmReal.exit ]
  ret i32 %.0.lcssa
}